; Function Attrs: nounwind uwtable
define range(i32 0, 2) i32 @stbi_write_hdr(ptr noundef readonly captures(none) %0, i32 noundef %1, i32 noundef %2, i32 noundef %3, ptr noundef captures(address_is_null) %4) local_unnamed_addr #5 {
  %6 = alloca %struct.stbi__write_context, align 8
  call void @llvm.lifetime.start.p0(i64 88, ptr nonnull %6) #26
  %7 = getelementptr inbounds nuw i8, ptr %6, i64 16
  call void @llvm.memset.p0.i64(ptr noundef nonnull align 8 dereferenceable(88) %7, i8 0, i64 72, i1 false)
  %8 = tail call noalias noundef ptr @fopen(ptr noundef readonly %0, ptr noundef nonnull @.str)
  store ptr @stbi__stdio_write, ptr %6, align 8, !tbaa !7
  %9 = getelementptr inbounds nuw i8, ptr %6, i64 8
  store ptr %8, ptr %9, align 8, !tbaa !10
  %.not6 = icmp eq ptr %8, null
  br i1 %.not6, label %13, label %10

10:                                               ; preds = %5
  %11 = call i32 @stbi_write_hdr_core(ptr noundef nonnull %6, i32 noundef %1, i32 noundef %2, i32 noundef %3, ptr noundef %4)
  %12 = tail call i32 @fclose(ptr noundef nonnull %8)
  br label %13

13:                                               ; preds = %5, %10
  %.0 = phi i32 [ %11, %10 ], [ 0, %5 ]
  call void @llvm.lifetime.end.p0(i64 88, ptr nonnull %6) #26
  ret i32 %.0
}